; Function Attrs: mustprogress nounwind uwtable
define void @_ZN6casadi6SwitchD2Ev(ptr noundef nonnull align 8 dereferenceable(1346) initializes((0, 8)) %0) unnamed_addr #6 align 2 personality ptr @__gxx_personality_v0 {
  store ptr getelementptr inbounds nuw inrange(-16, 928) (i8, ptr @_ZTVN6casadi6SwitchE, i64 16), ptr %0, align 8, !tbaa !3
  invoke void @_ZN6casadi13ProtoFunction9clear_memEv(ptr noundef nonnull align 8 dereferenceable(168) %0)
          to label %2 unwind label %16

2:                                                ; preds = %1
  %3 = getelementptr inbounds nuw i8, ptr %0, i64 1336
  tail call void @_ZN6casadi8FunctionD1Ev(ptr noundef nonnull align 8 dereferenceable(8) %3) #23
  %4 = getelementptr inbounds nuw i8, ptr %0, i64 1312
  %5 = load ptr, ptr %4, align 8, !tbaa !25
  %6 = getelementptr inbounds nuw i8, ptr %0, i64 1320
  %7 = load ptr, ptr %6, align 8, !tbaa !23
  %.not4.i.i.i.i = icmp eq ptr %5, %7
  br i1 %.not4.i.i.i.i, label %_ZSt8_DestroyIPN6casadi8FunctionES1_EvT_S3_RSaIT0_E.exit.i, label %.lr.ph.i.i.i.i

.lr.ph.i.i.i.i:                                   ; preds = %2, %.lr.ph.i.i.i.i
  %.05.i.i.i.i = phi ptr [ %8, %.lr.ph.i.i.i.i ], [ %5, %2 ]
  tail call void @_ZN6casadi8FunctionD1Ev(ptr noundef nonnull align 8 dereferenceable(8) %.05.i.i.i.i) #23
  %8 = getelementptr inbounds nuw i8, ptr %.05.i.i.i.i, i64 8
  %.not.i.i.i.i = icmp eq ptr %8, %7
  br i1 %.not.i.i.i.i, label %_ZSt8_DestroyIPN6casadi8FunctionES1_EvT_S3_RSaIT0_E.exitthread-pre-split.i, label %.lr.ph.i.i.i.i, !llvm.loop !30

_ZSt8_DestroyIPN6casadi8FunctionES1_EvT_S3_RSaIT0_E.exitthread-pre-split.i: ; preds = %.lr.ph.i.i.i.i
  %.pr.i = load ptr, ptr %4, align 8, !tbaa !25
  br label %_ZSt8_DestroyIPN6casadi8FunctionES1_EvT_S3_RSaIT0_E.exit.i

_ZSt8_DestroyIPN6casadi8FunctionES1_EvT_S3_RSaIT0_E.exit.i: ; preds = %_ZSt8_DestroyIPN6casadi8FunctionES1_EvT_S3_RSaIT0_E.exitthread-pre-split.i, %2
  %9 = phi ptr [ %.pr.i, %_ZSt8_DestroyIPN6casadi8FunctionES1_EvT_S3_RSaIT0_E.exitthread-pre-split.i ], [ %5, %2 ]
  %.not.i.i.i = icmp eq ptr %9, null
  br i1 %.not.i.i.i, label %_ZNSt6vectorIN6casadi8FunctionESaIS1_EED2Ev.exit, label %10

10:                                               ; preds = %_ZSt8_DestroyIPN6casadi8FunctionES1_EvT_S3_RSaIT0_E.exit.i
  %11 = getelementptr inbounds nuw i8, ptr %0, i64 1328
  %12 = load ptr, ptr %11, align 8, !tbaa !27
  %13 = ptrtoint ptr %12 to i64
  %14 = ptrtoint ptr %9 to i64
  %15 = sub i64 %13, %14
  tail call void @_ZdlPvm(ptr noundef nonnull %9, i64 noundef %15) #25
  br label %_ZNSt6vectorIN6casadi8FunctionESaIS1_EED2Ev.exit

_ZNSt6vectorIN6casadi8FunctionESaIS1_EED2Ev.exit: ; preds = %_ZSt8_DestroyIPN6casadi8FunctionES1_EvT_S3_RSaIT0_E.exit.i, %10
  tail call void @_ZN6casadi16FunctionInternalD2Ev(ptr noundef nonnull align 8 dereferenceable(1312) %0) #23
  ret void

16:                                               ; preds = %1
  %17 = landingpad { ptr, i32 }
          catch ptr null
  %18 = extractvalue { ptr, i32 } %17, 0
  tail call void @__clang_call_terminate(ptr %18) #27
  unreachable
}